target datalayout = "e-m:e-p270:32:32-p271:32:32-p272:64:64-i64:64-i128:128-f80:128-n8:16:32:64-S128"
target triple = "x86_64-pc-linux-gnu"

%struct.mbedtls_psa_hash_operation_t = type { i32, %union.anon }
%union.anon = type { %struct.mbedtls_sha512_context }
%struct.mbedtls_sha512_context = type { [2 x i64], [8 x i64], [128 x i8], i32 }

; Function Attrs: nounwind uwtable
define hidden i32 @mbedtls_psa_hash_clone(ptr noundef %0, ptr noundef %1) #0 {
  %3 = alloca i32, align 4
  %4 = alloca ptr, align 8
  %5 = alloca ptr, align 8
  store ptr %0, ptr %4, align 8, !tbaa !3
  store ptr %1, ptr %5, align 8, !tbaa !3
  %6 = load ptr, ptr %4, align 8, !tbaa !3
  %7 = getelementptr inbounds nuw %struct.mbedtls_psa_hash_operation_t, ptr %6, i32 0, i32 0
  %8 = load i32, ptr %7, align 8, !tbaa !7
  switch i32 %8, label %50 [
    i32 0, label %9
    i32 33554435, label %10
    i32 33554436, label %15
    i32 33554437, label %20
    i32 33554440, label %25
    i32 33554441, label %30
    i32 33554442, label %35
    i32 33554443, label %40
    i32 33554448, label %45
    i32 33554449, label %45
    i32 33554450, label %45
    i32 33554451, label %45
  ]

9:                                                ; preds = %2
  store i32 -137, ptr %3, align 4
  br label %57

10:                                               ; preds = %2
  %11 = load ptr, ptr %5, align 8, !tbaa !3
  %12 = getelementptr inbounds nuw %struct.mbedtls_psa_hash_operation_t, ptr %11, i32 0, i32 1
  %13 = load ptr, ptr %4, align 8, !tbaa !3
  %14 = getelementptr inbounds nuw %struct.mbedtls_psa_hash_operation_t, ptr %13, i32 0, i32 1
  call void @mbedtls_md5_clone(ptr noundef %12, ptr noundef %14)
  br label %51

15:                                               ; preds = %2
  %16 = load ptr, ptr %5, align 8, !tbaa !3
  %17 = getelementptr inbounds nuw %struct.mbedtls_psa_hash_operation_t, ptr %16, i32 0, i32 1
  %18 = load ptr, ptr %4, align 8, !tbaa !3
  %19 = getelementptr inbounds nuw %struct.mbedtls_psa_hash_operation_t, ptr %18, i32 0, i32 1
  call void @mbedtls_ripemd160_clone(ptr noundef %17, ptr noundef %19)
  br label %51

20:                                               ; preds = %2
  %21 = load ptr, ptr %5, align 8, !tbaa !3
  %22 = getelementptr inbounds nuw %struct.mbedtls_psa_hash_operation_t, ptr %21, i32 0, i32 1
  %23 = load ptr, ptr %4, align 8, !tbaa !3
  %24 = getelementptr inbounds nuw %struct.mbedtls_psa_hash_operation_t, ptr %23, i32 0, i32 1
  call void @mbedtls_sha1_clone(ptr noundef %22, ptr noundef %24)
  br label %51

25:                                               ; preds = %2
  %26 = load ptr, ptr %5, align 8, !tbaa !3
  %27 = getelementptr inbounds nuw %struct.mbedtls_psa_hash_operation_t, ptr %26, i32 0, i32 1
  %28 = load ptr, ptr %4, align 8, !tbaa !3
  %29 = getelementptr inbounds nuw %struct.mbedtls_psa_hash_operation_t, ptr %28, i32 0, i32 1
  call void @mbedtls_sha256_clone(ptr noundef %27, ptr noundef %29)
  br label %51

30:                                               ; preds = %2
  %31 = load ptr, ptr %5, align 8, !tbaa !3
  %32 = getelementptr inbounds nuw %struct.mbedtls_psa_hash_operation_t, ptr %31, i32 0, i32 1
  %33 = load ptr, ptr %4, align 8, !tbaa !3
  %34 = getelementptr inbounds nuw %struct.mbedtls_psa_hash_operation_t, ptr %33, i32 0, i32 1
  call void @mbedtls_sha256_clone(ptr noundef %32, ptr noundef %34)
  br label %51

35:                                               ; preds = %2
  %36 = load ptr, ptr %5, align 8, !tbaa !3
  %37 = getelementptr inbounds nuw %struct.mbedtls_psa_hash_operation_t, ptr %36, i32 0, i32 1
  %38 = load ptr, ptr %4, align 8, !tbaa !3
  %39 = getelementptr inbounds nuw %struct.mbedtls_psa_hash_operation_t, ptr %38, i32 0, i32 1
  call void @mbedtls_sha512_clone(ptr noundef %37, ptr noundef %39)
  br label %51

40:                                               ; preds = %2
  %41 = load ptr, ptr %5, align 8, !tbaa !3
  %42 = getelementptr inbounds nuw %struct.mbedtls_psa_hash_operation_t, ptr %41, i32 0, i32 1
  %43 = load ptr, ptr %4, align 8, !tbaa !3
  %44 = getelementptr inbounds nuw %struct.mbedtls_psa_hash_operation_t, ptr %43, i32 0, i32 1
  call void @mbedtls_sha512_clone(ptr noundef %42, ptr noundef %44)
  br label %51

45:                                               ; preds = %2, %2, %2, %2
  %46 = load ptr, ptr %5, align 8, !tbaa !3
  %47 = getelementptr inbounds nuw %struct.mbedtls_psa_hash_operation_t, ptr %46, i32 0, i32 1
  %48 = load ptr, ptr %4, align 8, !tbaa !3
  %49 = getelementptr inbounds nuw %struct.mbedtls_psa_hash_operation_t, ptr %48, i32 0, i32 1
  call void @mbedtls_sha3_clone(ptr noundef %47, ptr noundef %49)
  br label %51

50:                                               ; preds = %2
  store i32 -134, ptr %3, align 4
  br label %57

51:                                               ; preds = %45, %40, %35, %30, %25, %20, %15, %10
  %52 = load ptr, ptr %4, align 8, !tbaa !3
  %53 = getelementptr inbounds nuw %struct.mbedtls_psa_hash_operation_t, ptr %52, i32 0, i32 0
  %54 = load i32, ptr %53, align 8, !tbaa !7
  %55 = load ptr, ptr %5, align 8, !tbaa !3
  %56 = getelementptr inbounds nuw %struct.mbedtls_psa_hash_operation_t, ptr %55, i32 0, i32 0
  store i32 %54, ptr %56, align 8, !tbaa !7
  store i32 0, ptr %3, align 4
  br label %57

57:                                               ; preds = %51, %50, %9
  %58 = load i32, ptr %3, align 4
  ret i32 %58
}