; Function Attrs: nounwind uwtable
define hidden range(i32 -137, 1) i32 @mbedtls_psa_hash_clone(ptr noundef %0, ptr noundef %1) local_unnamed_addr #0 {
  %3 = load i32, ptr %0, align 8, !tbaa !3
  switch i32 %3, label %28 [
    i32 0, label %31
    i32 33554435, label %4
    i32 33554436, label %7
    i32 33554437, label %10
    i32 33554440, label %13
    i32 33554441, label %16
    i32 33554442, label %19
    i32 33554443, label %22
    i32 33554448, label %25
    i32 33554449, label %25
    i32 33554450, label %25
    i32 33554451, label %25
  ]

4:                                                ; preds = %2
  %5 = getelementptr inbounds nuw i8, ptr %1, i64 8
  %6 = getelementptr inbounds nuw i8, ptr %0, i64 8
  tail call void @mbedtls_md5_clone(ptr noundef nonnull %5, ptr noundef nonnull %6) #4
  br label %29

7:                                                ; preds = %2
  %8 = getelementptr inbounds nuw i8, ptr %1, i64 8
  %9 = getelementptr inbounds nuw i8, ptr %0, i64 8
  tail call void @mbedtls_ripemd160_clone(ptr noundef nonnull %8, ptr noundef nonnull %9) #4
  br label %29

10:                                               ; preds = %2
  %11 = getelementptr inbounds nuw i8, ptr %1, i64 8
  %12 = getelementptr inbounds nuw i8, ptr %0, i64 8
  tail call void @mbedtls_sha1_clone(ptr noundef nonnull %11, ptr noundef nonnull %12) #4
  br label %29

13:                                               ; preds = %2
  %14 = getelementptr inbounds nuw i8, ptr %1, i64 8
  %15 = getelementptr inbounds nuw i8, ptr %0, i64 8
  tail call void @mbedtls_sha256_clone(ptr noundef nonnull %14, ptr noundef nonnull %15) #4
  br label %29

16:                                               ; preds = %2
  %17 = getelementptr inbounds nuw i8, ptr %1, i64 8
  %18 = getelementptr inbounds nuw i8, ptr %0, i64 8
  tail call void @mbedtls_sha256_clone(ptr noundef nonnull %17, ptr noundef nonnull %18) #4
  br label %29

19:                                               ; preds = %2
  %20 = getelementptr inbounds nuw i8, ptr %1, i64 8
  %21 = getelementptr inbounds nuw i8, ptr %0, i64 8
  tail call void @mbedtls_sha512_clone(ptr noundef nonnull %20, ptr noundef nonnull %21) #4
  br label %29

22:                                               ; preds = %2
  %23 = getelementptr inbounds nuw i8, ptr %1, i64 8
  %24 = getelementptr inbounds nuw i8, ptr %0, i64 8
  tail call void @mbedtls_sha512_clone(ptr noundef nonnull %23, ptr noundef nonnull %24) #4
  br label %29

25:                                               ; preds = %2, %2, %2, %2
  %26 = getelementptr inbounds nuw i8, ptr %1, i64 8
  %27 = getelementptr inbounds nuw i8, ptr %0, i64 8
  tail call void @mbedtls_sha3_clone(ptr noundef nonnull %26, ptr noundef nonnull %27) #4
  br label %29

28:                                               ; preds = %2
  br label %31

29:                                               ; preds = %25, %22, %19, %16, %13, %10, %7, %4
  %30 = load i32, ptr %0, align 8, !tbaa !3
  store i32 %30, ptr %1, align 8, !tbaa !3
  br label %31

31:                                               ; preds = %2, %29, %28
  %.0 = phi i32 [ -134, %28 ], [ 0, %29 ], [ -137, %2 ]
  ret i32 %.0
}